; ModuleID = '52/5793.cpp'
source_filename = "52/5793.cpp"
target datalayout = "e-m:e-p270:32:32-p271:32:32-p272:64:64-i64:64-f80:128-n8:16:32:64-S128"
target triple = "x86_64-pc-linux-gnu"

%"class.std::ios_base::Init" = type { i8 }
%"class.std::basic_istream" = type { i32 (...)**, i64, %"class.std::basic_ios" }
%"class.std::basic_ios" = type { %"class.std::ios_base", %"class.std::basic_ostream"*, i8, i8, %"class.std::basic_streambuf"*, %"class.std::ctype"*, %"class.std::num_put"*, %"class.std::num_get"* }
%"class.std::ios_base" = type { i32 (...)**, i64, i64, i32, i32, i32, %"struct.std::ios_base::_Callback_list"*, %"struct.std::ios_base::_Words", [8 x %"struct.std::ios_base::_Words"], i32, %"struct.std::ios_base::_Words"*, %"class.std::locale" }
%"struct.std::ios_base::_Callback_list" = type { %"struct.std::ios_base::_Callback_list"*, void (i32, %"class.std::ios_base"*, i32)*, i32, i32 }
%"struct.std::ios_base::_Words" = type { i8*, i64 }
%"class.std::locale" = type { %"class.std::locale::_Impl"* }
%"class.std::locale::_Impl" = type { i32, %"class.std::locale::facet"**, i64, %"class.std::locale::facet"**, i8** }
%"class.std::locale::facet" = type <{ i32 (...)**, i32, [4 x i8] }>
%"class.std::basic_ostream" = type { i32 (...)**, %"class.std::basic_ios" }
%"class.std::basic_streambuf" = type { i32 (...)**, i8*, i8*, i8*, i8*, i8*, i8*, %"class.std::locale" }
%"class.std::ctype" = type <{ %"class.std::locale::facet.base", [4 x i8], %struct.__locale_struct*, i8, [7 x i8], i32*, i32*, i16*, i8, [256 x i8], [256 x i8], i8, [6 x i8] }>
%"class.std::locale::facet.base" = type <{ i32 (...)**, i32 }>
%struct.__locale_struct = type { [13 x %struct.__locale_data*], i16*, i32*, i32*, [13 x i8*] }
%struct.__locale_data = type opaque
%"class.std::num_put" = type { %"class.std::locale::facet.base", [4 x i8] }
%"class.std::num_get" = type { %"class.std::locale::facet.base", [4 x i8] }

@_ZStL8__ioinit = internal global %"class.std::ios_base::Init" zeroinitializer, align 1
@__dso_handle = external hidden global i8
@_ZSt3cin = external dso_local global %"class.std::basic_istream", align 8
@_ZSt4cout = external dso_local global %"class.std::basic_ostream", align 8
@llvm.global_ctors = appending global [1 x { i32, void ()*, i8* }] [{ i32, void ()*, i8* } { i32 65535, void ()* @_GLOBAL__sub_I_5793.cpp, i8* null }]

; Function Attrs: noinline uwtable
define internal void @__cxx_global_var_init() #0 section ".text.startup" {
  call void @_ZNSt8ios_base4InitC1Ev(%"class.std::ios_base::Init"* @_ZStL8__ioinit)
  %1 = call i32 @__cxa_atexit(void (i8*)* bitcast (void (%"class.std::ios_base::Init"*)* @_ZNSt8ios_base4InitD1Ev to void (i8*)*), i8* getelementptr inbounds (%"class.std::ios_base::Init", %"class.std::ios_base::Init"* @_ZStL8__ioinit, i32 0, i32 0), i8* @__dso_handle) #3
  ret void
}

declare dso_local void @_ZNSt8ios_base4InitC1Ev(%"class.std::ios_base::Init"*) unnamed_addr #1

; Function Attrs: nounwind
declare dso_local void @_ZNSt8ios_base4InitD1Ev(%"class.std::ios_base::Init"*) unnamed_addr #2

; Function Attrs: nounwind
declare dso_local i32 @__cxa_atexit(void (i8*)*, i8*, i8*) #3

; Function Attrs: noinline norecurse uwtable
define dso_local i32 @main() #4 {
  %1 = alloca i32, align 4
  %2 = alloca i32, align 4
  %3 = alloca i32, align 4
  %4 = alloca i32, align 4
  %5 = alloca i32, align 4
  %6 = alloca i8*, align 8
  %7 = alloca i64, align 8
  %8 = alloca i32*, align 8
  %9 = alloca i32, align 4
  %10 = alloca i32, align 4
  %11 = alloca i32, align 4
  %12 = alloca i32, align 4
  store i32 0, i32* %1, align 4
  %13 = call dereferenceable(280) %"class.std::basic_istream"* @_ZNSirsERi(%"class.std::basic_istream"* @_ZSt3cin, i32* dereferenceable(4) %2)
  %14 = call dereferenceable(280) %"class.std::basic_istream"* @_ZNSirsERi(%"class.std::basic_istream"* %13, i32* dereferenceable(4) %3)
  %15 = load i32, i32* %2, align 4
  store i32 %15, i32* %5, align 4
  %16 = load i32, i32* %5, align 4
  %17 = zext i32 %16 to i64
  %18 = call i8* @llvm.stacksave()
  store i8* %18, i8** %6, align 8
  %19 = alloca i32, i64 %17, align 16
  store i64 %17, i64* %7, align 8
  store i32* %19, i32** %8, align 8
  store i32 0, i32* %9, align 4
  br label %20

20:                                               ; preds = %31, %0
  %21 = load i32, i32* %9, align 4
  %22 = load i32, i32* %5, align 4
  %23 = sub nsw i32 %22, 1
  %24 = icmp sle i32 %21, %23
  br i1 %24, label %25, label %34

25:                                               ; preds = %20
  %26 = load i32*, i32** %8, align 8
  %27 = load i32, i32* %9, align 4
  %28 = sext i32 %27 to i64
  %29 = getelementptr inbounds i32, i32* %26, i64 %28
  %30 = call dereferenceable(280) %"class.std::basic_istream"* @_ZNSirsERi(%"class.std::basic_istream"* @_ZSt3cin, i32* dereferenceable(4) %29)
  br label %31

31:                                               ; preds = %25
  %32 = load i32, i32* %9, align 4
  %33 = add nsw i32 %32, 1
  store i32 %33, i32* %9, align 4
  br label %20

34:                                               ; preds = %20
  store i32 1, i32* %10, align 4
  br label %35

35:                                               ; preds = %68, %34
  %36 = load i32, i32* %10, align 4
  %37 = load i32, i32* %3, align 4
  %38 = icmp sle i32 %36, %37
  br i1 %38, label %39, label %71

39:                                               ; preds = %35
  %40 = load i32*, i32** %8, align 8
  %41 = load i32, i32* %5, align 4
  %42 = sext i32 %41 to i64
  %43 = getelementptr inbounds i32, i32* %40, i64 %42
  %44 = getelementptr inbounds i32, i32* %43, i64 -1
  %45 = load i32, i32* %44, align 4
  store i32 %45, i32* %4, align 4
  %46 = load i32, i32* %5, align 4
  %47 = sub nsw i32 %46, 2
  store i32 %47, i32* %11, align 4
  br label %48

48:                                               ; preds = %62, %39
  %49 = load i32, i32* %11, align 4
  %50 = icmp sge i32 %49, 0
  br i1 %50, label %51, label %65

51:                                               ; preds = %48
  %52 = load i32*, i32** %8, align 8
  %53 = load i32, i32* %11, align 4
  %54 = sext i32 %53 to i64
  %55 = getelementptr inbounds i32, i32* %52, i64 %54
  %56 = load i32, i32* %55, align 4
  %57 = load i32*, i32** %8, align 8
  %58 = load i32, i32* %11, align 4
  %59 = sext i32 %58 to i64
  %60 = getelementptr inbounds i32, i32* %57, i64 %59
  %61 = getelementptr inbounds i32, i32* %60, i64 1
  store i32 %56, i32* %61, align 4
  br label %62

62:                                               ; preds = %51
  %63 = load i32, i32* %11, align 4
  %64 = add nsw i32 %63, -1
  store i32 %64, i32* %11, align 4
  br label %48

65:                                               ; preds = %48
  %66 = load i32, i32* %4, align 4
  %67 = load i32*, i32** %8, align 8
  store i32 %66, i32* %67, align 4
  br label %68

68:                                               ; preds = %65
  %69 = load i32, i32* %10, align 4
  %70 = add nsw i32 %69, 1
  store i32 %70, i32* %10, align 4
  br label %35

71:                                               ; preds = %35
  store i32 0, i32* %12, align 4
  br label %72

72:                                               ; preds = %98, %71
  %73 = load i32, i32* %12, align 4
  %74 = load i32, i32* %5, align 4
  %75 = sub nsw i32 %74, 1
  %76 = icmp sle i32 %73, %75
  br i1 %76, label %77, label %101

77:                                               ; preds = %72
  %78 = load i32, i32* %12, align 4
  %79 = load i32, i32* %5, align 4
  %80 = sub nsw i32 %79, 1
  %81 = icmp ne i32 %78, %80
  br i1 %81, label %82, label %90

82:                                               ; preds = %77
  %83 = load i32*, i32** %8, align 8
  %84 = load i32, i32* %12, align 4
  %85 = sext i32 %84 to i64
  %86 = getelementptr inbounds i32, i32* %83, i64 %85
  %87 = load i32, i32* %86, align 4
  %88 = call dereferenceable(272) %"class.std::basic_ostream"* @_ZNSolsEi(%"class.std::basic_ostream"* @_ZSt4cout, i32 %87)
  %89 = call dereferenceable(272) %"class.std::basic_ostream"* @_ZStlsISt11char_traitsIcEERSt13basic_ostreamIcT_ES5_c(%"class.std::basic_ostream"* dereferenceable(272) %88, i8 signext 32)
  br label %97

90:                                               ; preds = %77
  %91 = load i32*, i32** %8, align 8
  %92 = load i32, i32* %12, align 4
  %93 = sext i32 %92 to i64
  %94 = getelementptr inbounds i32, i32* %91, i64 %93
  %95 = load i32, i32* %94, align 4
  %96 = call dereferenceable(272) %"class.std::basic_ostream"* @_ZNSolsEi(%"class.std::basic_ostream"* @_ZSt4cout, i32 %95)
  br label %97

97:                                               ; preds = %90, %82
  br label %98

98:                                               ; preds = %97
  %99 = load i32, i32* %12, align 4
  %100 = add nsw i32 %99, 1
  store i32 %100, i32* %12, align 4
  br label %72

101:                                              ; preds = %72
  store i32 0, i32* %1, align 4
  %102 = load i8*, i8** %6, align 8
  call void @llvm.stackrestore(i8* %102)
  %103 = load i32, i32* %1, align 4
  ret i32 %103
}

declare dso_local dereferenceable(280) %"class.std::basic_istream"* @_ZNSirsERi(%"class.std::basic_istream"*, i32* dereferenceable(4)) #1

; Function Attrs: nounwind
declare i8* @llvm.stacksave() #3

declare dso_local dereferenceable(272) %"class.std::basic_ostream"* @_ZStlsISt11char_traitsIcEERSt13basic_ostreamIcT_ES5_c(%"class.std::basic_ostream"* dereferenceable(272), i8 signext) #1

declare dso_local dereferenceable(272) %"class.std::basic_ostream"* @_ZNSolsEi(%"class.std::basic_ostream"*, i32) #1

; Function Attrs: nounwind
declare void @llvm.stackrestore(i8*) #3

; Function Attrs: noinline uwtable
define internal void @_GLOBAL__sub_I_5793.cpp() #0 section ".text.startup" {
  call void @__cxx_global_var_init()
  ret void
}


!llvm.module.flags = !{!0}
!llvm.ident = !{!1}

!0 = !{i32 1, !"wchar_size", i32 4}
!1 = !{!"clang version 10.0.0-4ubuntu1 "}
